; Function Attrs: nounwind uwtable
define internal void @_on_sigpipe(ptr readnone captures(none) %0, i32 %1, ptr readnone captures(none) %2) #0 {
  %4 = tail call i32 @get_log_level() #14
  %5 = icmp sgt i32 %4, 8
  br i1 %5, label %6, label %7

6:                                                ; preds = %3
  tail call void (i32, ptr, ...) @log_var(i32 noundef 9, ptr noundef nonnull @.str.51) #14
  br label %7

7:                                                ; preds = %6, %3
  ret void
}